target datalayout = "e-m:e-p270:32:32-p271:32:32-p272:64:64-i64:64-i128:128-f80:128-n8:16:32:64-S128"
target triple = "x86_64-pc-linux-gnu"

%union.pthread_cond_t = type { %struct.__pthread_cond_s }
%struct.__pthread_cond_s = type { %union.__atomic_wide_counter, %union.__atomic_wide_counter, [2 x i32], [2 x i32], i32, i32, [2 x i32] }
%union.__atomic_wide_counter = type { i64 }
%union.pthread_mutex_t = type { %struct.__pthread_mutex_s }
%struct.__pthread_mutex_s = type { i32, i32, i32, i32, i32, i16, i16, %struct.__pthread_internal_list }
%struct.__pthread_internal_list = type { ptr, ptr }
%struct.slurm_conf_t = type { i64, ptr, i16, ptr, ptr, ptr, ptr, ptr, i16, ptr, ptr, ptr, ptr, ptr, ptr, ptr, i16, ptr, ptr, ptr, ptr, i16, ptr, ptr, ptr, i64, ptr, ptr, ptr, ptr, i16, ptr, ptr, i16, i32, ptr, i32, ptr, i32, i32, ptr, ptr, i64, i64, ptr, i16, i16, ptr, i32, i32, ptr, i32, ptr, i32, i16, i16, i16, ptr, i16, i16, ptr, ptr, i32, i16, i16, ptr, i32, i16, ptr, ptr, ptr, ptr, i16, ptr, ptr, ptr, ptr, i32, ptr, ptr, ptr, ptr, i16, i16, ptr, i32, i32, i32, i16, i16, ptr, ptr, i16, ptr, ptr, i32, i32, i32, i32, i32, i64, i32, i32, i16, ptr, ptr, i32, ptr, ptr, ptr, i16, i32, ptr, ptr, i16, ptr, ptr, i32, i16, ptr, ptr, ptr, ptr, i32, i32, i16, i16, i32, ptr, i16, ptr, i32, i32, i32, i32, i32, i32, ptr, i16, ptr, ptr, i32, i16, ptr, i32, i16, i16, ptr, ptr, ptr, i16, ptr, ptr, ptr, ptr, i16, i16, ptr, i16, ptr, i16, ptr, i16, ptr, i16, ptr, ptr, ptr, ptr, i16, ptr, ptr, ptr, i32, ptr, i32, ptr, ptr, i16, ptr, ptr, i32, i16, ptr, ptr, i16, i16, ptr, i16, ptr, ptr, ptr, i32, ptr, i16, i16, ptr, ptr, ptr, ptr, ptr, ptr, ptr, ptr, i16, i32, i16, ptr, ptr, ptr, ptr, i32, ptr, ptr, ptr, i16, ptr, ptr, ptr, i16, ptr, i16, ptr, i16, i16, ptr }
%struct.stepd_step_rec_t = type { ptr, ptr, i32, %union.pthread_cond_t, %union.pthread_mutex_t, %struct.slurm_step_id_msg, i32, i32, i32, i32, i32, i32, ptr, ptr, i32, i32, ptr, i32, i32, i32, i32, i32, ptr, ptr, ptr, ptr, i32, i32, i64, i64, i16, i32, ptr, ptr, ptr, i32, ptr, i32, ptr, i32, ptr, i16, i32, i32, i32, ptr, i32, ptr, ptr, ptr, ptr, i32, i32, ptr, ptr, i8, i8, i8, i64, i32, ptr, ptr, ptr, ptr, ptr, ptr, ptr, ptr, ptr, ptr, i32, i32, ptr, i8, %union.pthread_cond_t, %union.pthread_mutex_t, i64, ptr, i32, i32, i32, ptr, i64, ptr, ptr, i8, ptr, i16, ptr, ptr, ptr, ptr, ptr, ptr, i64, ptr, i64, ptr, i16, i8, i16, i32, ptr, i16, ptr, ptr, i16, ptr, ptr, ptr, i8 }
%struct.slurm_step_id_msg = type { i64, i32, i32, i32 }

@slurm_conf = external global %struct.slurm_conf_t, align 8
@.str.142 = private unnamed_addr constant [19 x i8] c"SLURM_PRIO_PROCESS\00", align 1
@.str.143 = private unnamed_addr constant [32 x i8] c"Couldn't find %s in environment\00", align 1
@.str.144 = private unnamed_addr constant [34 x i8] c"setpriority(PRIO_PROCESS, %d): %m\00", align 1
@.str.145 = private unnamed_addr constant [44 x i8] c"_set_prio_process: setpriority %d succeeded\00", align 1

; Function Attrs: inlinehint nounwind willreturn memory(read) uwtable
define available_externally i32 @atoi(ptr noundef nonnull %0) #7 {
  %2 = alloca ptr, align 8
  store ptr %0, ptr %2, align 8
  %3 = load ptr, ptr %2, align 8
  %4 = call i64 @strtol(ptr noundef %3, ptr noundef null, i32 noundef 10) #12
  %5 = trunc i64 %4 to i32
  ret i32 %5
}

; Function Attrs: nounwind uwtable
define internal void @_set_prio_process(ptr noundef %0) #0 {
  %2 = alloca ptr, align 8
  %3 = alloca ptr, align 8
  %4 = alloca ptr, align 8
  %5 = alloca i32, align 4
  %6 = alloca i32, align 4
  store ptr %0, ptr %2, align 8
  call void @llvm.lifetime.start.p0(i64 8, ptr %3) #12
  store ptr @.str.142, ptr %3, align 8
  call void @llvm.lifetime.start.p0(i64 8, ptr %4) #12
  call void @llvm.lifetime.start.p0(i64 4, ptr %5) #12
  call void @llvm.lifetime.start.p0(i64 4, ptr %6) #12
  %7 = load ptr, ptr %2, align 8
  %8 = getelementptr inbounds nuw %struct.stepd_step_rec_t, ptr %7, i32 0, i32 32
  %9 = load ptr, ptr %8, align 8
  %10 = load ptr, ptr %3, align 8
  %11 = call ptr @getenvp(ptr noundef %9, ptr noundef %10)
  store ptr %11, ptr %4, align 8
  %12 = icmp ne ptr %11, null
  br i1 %12, label %16, label %13

13:                                               ; preds = %1
  %14 = load ptr, ptr %3, align 8
  %15 = call i32 (ptr, ...) @error(ptr noundef @.str.143, ptr noundef %14)
  store i32 0, ptr %6, align 4
  br label %23

16:                                               ; preds = %1
  %17 = load ptr, ptr %2, align 8
  %18 = getelementptr inbounds nuw %struct.stepd_step_rec_t, ptr %17, i32 0, i32 32
  %19 = load ptr, ptr %18, align 8
  %20 = load ptr, ptr %3, align 8
  call void @unsetenvp(ptr noundef %19, ptr noundef %20)
  %21 = load ptr, ptr %4, align 8
  %22 = call i32 @atoi(ptr noundef %21) #15
  store i32 %22, ptr %6, align 4
  br label %23

23:                                               ; preds = %16, %13
  %24 = load i16, ptr getelementptr inbounds nuw (%struct.slurm_conf_t, ptr @slurm_conf, i32 0, i32 145), align 4
  %25 = zext i16 %24 to i32
  %26 = icmp eq i32 %25, 2
  br i1 %26, label %27, label %40

27:                                               ; preds = %23
  %28 = call i32 @getpriority(i32 noundef 0, i32 noundef 0) #12
  store i32 %28, ptr %5, align 4
  %29 = load i32, ptr %6, align 4
  %30 = load i32, ptr %5, align 4
  %31 = add nsw i32 %30, 1
  %32 = icmp sgt i32 %29, %31
  br i1 %32, label %33, label %35

33:                                               ; preds = %27
  %34 = load i32, ptr %6, align 4
  br label %38

35:                                               ; preds = %27
  %36 = load i32, ptr %5, align 4
  %37 = add nsw i32 %36, 1
  br label %38

38:                                               ; preds = %35, %33
  %39 = phi i32 [ %34, %33 ], [ %37, %35 ]
  store i32 %39, ptr %6, align 4
  br label %40

40:                                               ; preds = %38, %23
  %41 = load i32, ptr %6, align 4
  %42 = call i32 @setpriority(i32 noundef 0, i32 noundef 0, i32 noundef %41) #12
  %43 = icmp ne i32 %42, 0
  br i1 %43, label %44, label %47

44:                                               ; preds = %40
  %45 = load i32, ptr %6, align 4
  %46 = call i32 (ptr, ...) @error(ptr noundef @.str.144, i32 noundef %45)
  br label %59

47:                                               ; preds = %40
  br label %48

48:                                               ; preds = %47
  br label %49

49:                                               ; preds = %48
  %50 = call i32 @get_log_level()
  %51 = icmp sge i32 %50, 6
  br i1 %51, label %52, label %54

52:                                               ; preds = %49
  %53 = load i32, ptr %6, align 4
  call void (i32, ptr, ...) @log_var(i32 noundef 6, ptr noundef @.str.145, i32 noundef %53)
  br label %54

54:                                               ; preds = %52, %49
  br label %55

55:                                               ; preds = %54
  br label %56

56:                                               ; preds = %55
  br label %57

57:                                               ; preds = %56
  br label %58

58:                                               ; preds = %57
  br label %59

59:                                               ; preds = %58, %44
  call void @llvm.lifetime.end.p0(i64 4, ptr %6) #12
  call void @llvm.lifetime.end.p0(i64 4, ptr %5) #12
  call void @llvm.lifetime.end.p0(i64 8, ptr %4) #12
  call void @llvm.lifetime.end.p0(i64 8, ptr %3) #12
  ret void
}