; Function Attrs: nounwind uwtable
define internal fastcc void @_set_prio_process(ptr noundef readonly captures(none) %0) unnamed_addr #0 {
  %2 = getelementptr inbounds nuw i8, ptr %0, i64 280
  %3 = load ptr, ptr %2, align 8
  %4 = tail call ptr @getenvp(ptr noundef %3, ptr noundef nonnull @.str.142) #17
  %.not = icmp eq ptr %4, null
  br i1 %.not, label %5, label %7

5:                                                ; preds = %1
  %6 = tail call i32 (ptr, ...) @error(ptr noundef nonnull @.str.143, ptr noundef nonnull @.str.142) #17
  br label %11

7:                                                ; preds = %1
  %8 = load ptr, ptr %2, align 8
  tail call void @unsetenvp(ptr noundef %8, ptr noundef nonnull @.str.142) #17
  %9 = tail call i64 @strtol(ptr noundef nonnull captures(none) %4, ptr noundef null, i32 noundef 10) #17
  %10 = trunc i64 %9 to i32
  br label %11

11:                                               ; preds = %7, %5
  %.0 = phi i32 [ %10, %7 ], [ 0, %5 ]
  %12 = load i16, ptr getelementptr inbounds nuw (i8, ptr @slurm_conf, i64 948), align 4
  %13 = icmp eq i16 %12, 2
  br i1 %13, label %14, label %18

14:                                               ; preds = %11
  %15 = tail call i32 @getpriority(i32 noundef 0, i32 noundef 0) #17
  %16 = add nsw i32 %15, 1
  %17 = tail call i32 @llvm.smax.i32(i32 %.0, i32 %16)
  br label %18

18:                                               ; preds = %14, %11
  %.1 = phi i32 [ %17, %14 ], [ %.0, %11 ]
  %19 = tail call i32 @setpriority(i32 noundef 0, i32 noundef 0, i32 noundef %.1) #17
  %.not13 = icmp eq i32 %19, 0
  br i1 %.not13, label %22, label %20

20:                                               ; preds = %18
  %21 = tail call i32 (ptr, ...) @error(ptr noundef nonnull @.str.144, i32 noundef %.1) #17
  br label %26

22:                                               ; preds = %18
  %23 = tail call i32 @get_log_level() #17
  %24 = icmp sgt i32 %23, 5
  br i1 %24, label %25, label %26

25:                                               ; preds = %22
  tail call void (i32, ptr, ...) @log_var(i32 noundef 6, ptr noundef nonnull @.str.145, i32 noundef %.1) #17
  br label %26

26:                                               ; preds = %22, %25, %20
  ret void
}